; ModuleID = '56/1147.c'
source_filename = "56/1147.c"
target datalayout = "e-m:e-p270:32:32-p271:32:32-p272:64:64-i64:64-f80:128-n8:16:32:64-S128"
target triple = "x86_64-pc-linux-gnu"

@.str = private unnamed_addr constant [3 x i8] c"%d\00", align 1

; Function Attrs: noinline nounwind uwtable
define dso_local i32 @main() #0 {
  %1 = alloca i32, align 4
  %2 = alloca i32, align 4
  %3 = alloca [5 x i32], align 16
  %4 = alloca i32, align 4
  store i32 0, i32* %1, align 4
  %5 = call i32 (i8*, ...) @__isoc99_scanf(i8* getelementptr inbounds ([3 x i8], [3 x i8]* @.str, i64 0, i64 0), i32* %2)
  %6 = load i32, i32* %2, align 4
  %7 = srem i32 %6, 10
  %8 = getelementptr inbounds [5 x i32], [5 x i32]* %3, i64 0, i64 0
  store i32 %7, i32* %8, align 16
  %9 = load i32, i32* %2, align 4
  %10 = srem i32 %9, 100
  %11 = getelementptr inbounds [5 x i32], [5 x i32]* %3, i64 0, i64 0
  %12 = load i32, i32* %11, align 16
  %13 = sub nsw i32 %10, %12
  %14 = sdiv i32 %13, 10
  %15 = getelementptr inbounds [5 x i32], [5 x i32]* %3, i64 0, i64 1
  store i32 %14, i32* %15, align 4
  %16 = load i32, i32* %2, align 4
  %17 = srem i32 %16, 1000
  %18 = load i32, i32* %2, align 4
  %19 = srem i32 %18, 100
  %20 = sub nsw i32 %17, %19
  %21 = sdiv i32 %20, 100
  %22 = getelementptr inbounds [5 x i32], [5 x i32]* %3, i64 0, i64 2
  store i32 %21, i32* %22, align 8
  %23 = load i32, i32* %2, align 4
  %24 = srem i32 %23, 10000
  %25 = load i32, i32* %2, align 4
  %26 = srem i32 %25, 1000
  %27 = sub nsw i32 %24, %26
  %28 = sdiv i32 %27, 1000
  %29 = getelementptr inbounds [5 x i32], [5 x i32]* %3, i64 0, i64 3
  store i32 %28, i32* %29, align 4
  %30 = load i32, i32* %2, align 4
  %31 = sdiv i32 %30, 10000
  %32 = getelementptr inbounds [5 x i32], [5 x i32]* %3, i64 0, i64 4
  store i32 %31, i32* %32, align 16
  store i32 0, i32* %4, align 4
  br label %33

33:                                               ; preds = %49, %0
  %34 = load i32, i32* %4, align 4
  %35 = icmp slt i32 %34, 5
  br i1 %35, label %36, label %52

36:                                               ; preds = %33
  %37 = load i32, i32* %4, align 4
  %38 = sext i32 %37 to i64
  %39 = getelementptr inbounds [5 x i32], [5 x i32]* %3, i64 0, i64 %38
  %40 = load i32, i32* %39, align 4
  %41 = icmp ne i32 %40, 0
  br i1 %41, label %42, label %48

42:                                               ; preds = %36
  %43 = load i32, i32* %4, align 4
  %44 = sext i32 %43 to i64
  %45 = getelementptr inbounds [5 x i32], [5 x i32]* %3, i64 0, i64 %44
  %46 = load i32, i32* %45, align 4
  %47 = call i32 (i8*, ...) @printf(i8* getelementptr inbounds ([3 x i8], [3 x i8]* @.str, i64 0, i64 0), i32 %46)
  br label %48

48:                                               ; preds = %42, %36
  br label %49

49:                                               ; preds = %48
  %50 = load i32, i32* %4, align 4
  %51 = add nsw i32 %50, 1
  store i32 %51, i32* %4, align 4
  br label %33

52:                                               ; preds = %33
  ret i32 0
}

declare dso_local i32 @__isoc99_scanf(i8*, ...) #1

declare dso_local i32 @printf(i8*, ...) #1


!llvm.module.flags = !{!0}
!llvm.ident = !{!1}

!0 = !{i32 1, !"wchar_size", i32 4}
!1 = !{!"clang version 10.0.0-4ubuntu1 "}
